; Function Attrs: nounwind uwtable
define dso_local void @pg_log_generic_v(i32 noundef %0, i32 noundef %1, ptr noalias noundef %2, ptr noundef %3) local_unnamed_addr #0 {
  %5 = alloca ptr, align 8
  %6 = alloca i64, align 8
  %7 = alloca [1 x %struct.__va_list_tag], align 16
  %8 = tail call ptr @__errno_location() #15
  %9 = load i32, ptr %8, align 4
  call void @llvm.lifetime.start.p0(i64 8, ptr nonnull %5) #13
  store ptr null, ptr %5, align 8
  call void @llvm.lifetime.start.p0(i64 8, ptr nonnull %6) #13
  store i64 0, ptr %6, align 8
  call void @llvm.lifetime.start.p0(i64 24, ptr nonnull %7) #13
  %10 = load i32, ptr @__pg_log_level, align 4
  %11 = icmp ult i32 %0, %10
  br i1 %11, label %117, label %12

12:                                               ; preds = %4
  %13 = load ptr, ptr @stdout, align 8
  %14 = tail call i32 @fflush(ptr noundef %13)
  %15 = load ptr, ptr @log_pre_callback, align 8
  %.not = icmp eq ptr %15, null
  br i1 %.not, label %17, label %16

16:                                               ; preds = %12
  tail call void %15() #13
  br label %17

17:                                               ; preds = %16, %12
  %18 = load ptr, ptr @log_locus_callback, align 8
  %.not34 = icmp eq ptr %18, null
  br i1 %.not34, label %21, label %19

19:                                               ; preds = %17
  call void %18(ptr noundef nonnull %5, ptr noundef nonnull %6) #13
  %.pre = load ptr, ptr %5, align 8
  %20 = icmp ne ptr %.pre, null
  br label %21

21:                                               ; preds = %19, %17
  %22 = phi i1 [ %20, %19 ], [ false, %17 ]
  %23 = load i32, ptr @log_flags, align 4
  %24 = and i32 %23, 1
  %25 = icmp eq i32 %24, 0
  %or.cond = select i1 %25, i1 true, i1 %22
  br i1 %or.cond, label %26, label %54

26:                                               ; preds = %21
  %27 = load ptr, ptr @sgr_locus, align 8
  %.not35 = icmp eq ptr %27, null
  br i1 %.not35, label %31, label %28

28:                                               ; preds = %26
  %29 = load ptr, ptr @stderr, align 8
  %30 = call i32 (ptr, ptr, ...) @pg_fprintf(ptr noundef %29, ptr noundef nonnull @.str.13, ptr noundef nonnull %27) #13
  %.pre50 = load i32, ptr @log_flags, align 4
  br label %31

31:                                               ; preds = %28, %26
  %32 = phi i32 [ %.pre50, %28 ], [ %23, %26 ]
  %33 = and i32 %32, 1
  %.not36 = icmp eq i32 %33, 0
  br i1 %.not36, label %34, label %38

34:                                               ; preds = %31
  %35 = load ptr, ptr @stderr, align 8
  %36 = load ptr, ptr @progname, align 8
  %37 = call i32 (ptr, ptr, ...) @pg_fprintf(ptr noundef %35, ptr noundef nonnull @.str.14, ptr noundef %36) #13
  br label %38

38:                                               ; preds = %34, %31
  %39 = load ptr, ptr %5, align 8
  %.not37 = icmp eq ptr %39, null
  br i1 %.not37, label %47, label %40

40:                                               ; preds = %38
  %41 = load ptr, ptr @stderr, align 8
  %42 = call i32 (ptr, ptr, ...) @pg_fprintf(ptr noundef %41, ptr noundef nonnull @.str.14, ptr noundef nonnull %39) #13
  %43 = load i64, ptr %6, align 8
  %.not38 = icmp eq i64 %43, 0
  br i1 %.not38, label %47, label %44

44:                                               ; preds = %40
  %45 = load ptr, ptr @stderr, align 8
  %46 = call i32 (ptr, ptr, ...) @pg_fprintf(ptr noundef %45, ptr noundef nonnull @.str.15, i64 noundef %43) #13
  br label %47

47:                                               ; preds = %40, %44, %38
  %48 = load ptr, ptr @stderr, align 8
  %49 = call i32 (ptr, ptr, ...) @pg_fprintf(ptr noundef %48, ptr noundef nonnull @.str.16) #13
  %50 = load ptr, ptr @sgr_locus, align 8
  %.not39 = icmp eq ptr %50, null
  br i1 %.not39, label %54, label %51

51:                                               ; preds = %47
  %52 = load ptr, ptr @stderr, align 8
  %53 = call i32 (ptr, ptr, ...) @pg_fprintf(ptr noundef %52, ptr noundef nonnull @.str.17) #13
  br label %54

54:                                               ; preds = %47, %51, %21
  %55 = load i32, ptr @log_flags, align 4
  %56 = and i32 %55, 1
  %.not40 = icmp eq i32 %56, 0
  br i1 %.not40, label %57, label %97

57:                                               ; preds = %54
  switch i32 %1, label %97 [
    i32 0, label %58
    i32 1, label %77
    i32 2, label %86
  ]

58:                                               ; preds = %57
  switch i32 %0, label %97 [
    i32 4, label %59
    i32 3, label %68
  ]

59:                                               ; preds = %58
  %60 = load ptr, ptr @sgr_error, align 8
  %.not47 = icmp eq ptr %60, null
  br i1 %.not47, label %64, label %61

61:                                               ; preds = %59
  %62 = load ptr, ptr @stderr, align 8
  %63 = call i32 (ptr, ptr, ...) @pg_fprintf(ptr noundef %62, ptr noundef nonnull @.str.13, ptr noundef nonnull %60) #13
  br label %64

64:                                               ; preds = %61, %59
  %65 = load ptr, ptr @stderr, align 8
  %66 = call i32 (ptr, ptr, ...) @pg_fprintf(ptr noundef %65, ptr noundef nonnull @.str.18) #13
  %67 = load ptr, ptr @sgr_error, align 8
  %.not48 = icmp eq ptr %67, null
  br i1 %.not48, label %97, label %.sink.split

68:                                               ; preds = %58
  %69 = load ptr, ptr @sgr_warning, align 8
  %.not45 = icmp eq ptr %69, null
  br i1 %.not45, label %73, label %70

70:                                               ; preds = %68
  %71 = load ptr, ptr @stderr, align 8
  %72 = call i32 (ptr, ptr, ...) @pg_fprintf(ptr noundef %71, ptr noundef nonnull @.str.13, ptr noundef nonnull %69) #13
  br label %73

73:                                               ; preds = %70, %68
  %74 = load ptr, ptr @stderr, align 8
  %75 = call i32 (ptr, ptr, ...) @pg_fprintf(ptr noundef %74, ptr noundef nonnull @.str.19) #13
  %76 = load ptr, ptr @sgr_warning, align 8
  %.not46 = icmp eq ptr %76, null
  br i1 %.not46, label %97, label %.sink.split

77:                                               ; preds = %57
  %78 = load ptr, ptr @sgr_note, align 8
  %.not43 = icmp eq ptr %78, null
  br i1 %.not43, label %82, label %79

79:                                               ; preds = %77
  %80 = load ptr, ptr @stderr, align 8
  %81 = call i32 (ptr, ptr, ...) @pg_fprintf(ptr noundef %80, ptr noundef nonnull @.str.13, ptr noundef nonnull %78) #13
  br label %82

82:                                               ; preds = %79, %77
  %83 = load ptr, ptr @stderr, align 8
  %84 = call i32 (ptr, ptr, ...) @pg_fprintf(ptr noundef %83, ptr noundef nonnull @.str.20) #13
  %85 = load ptr, ptr @sgr_note, align 8
  %.not44 = icmp eq ptr %85, null
  br i1 %.not44, label %97, label %.sink.split

86:                                               ; preds = %57
  %87 = load ptr, ptr @sgr_note, align 8
  %.not41 = icmp eq ptr %87, null
  br i1 %.not41, label %91, label %88

88:                                               ; preds = %86
  %89 = load ptr, ptr @stderr, align 8
  %90 = call i32 (ptr, ptr, ...) @pg_fprintf(ptr noundef %89, ptr noundef nonnull @.str.13, ptr noundef nonnull %87) #13
  br label %91

91:                                               ; preds = %88, %86
  %92 = load ptr, ptr @stderr, align 8
  %93 = call i32 (ptr, ptr, ...) @pg_fprintf(ptr noundef %92, ptr noundef nonnull @.str.21) #13
  %94 = load ptr, ptr @sgr_note, align 8
  %.not42 = icmp eq ptr %94, null
  br i1 %.not42, label %97, label %.sink.split

.sink.split:                                      ; preds = %91, %82, %73, %64
  %95 = load ptr, ptr @stderr, align 8
  %96 = call i32 (ptr, ptr, ...) @pg_fprintf(ptr noundef %95, ptr noundef nonnull @.str.17) #13
  br label %97

97:                                               ; preds = %.sink.split, %57, %58, %73, %64, %82, %91, %54
  store i32 %9, ptr %8, align 4
  call void @llvm.va_copy.p0(ptr nonnull %7, ptr %3)
  %98 = call i32 @pg_vsnprintf(ptr noundef null, i64 noundef 0, ptr noundef %2, ptr noundef nonnull %7) #13
  %99 = add i32 %98, 1
  %100 = sext i32 %99 to i64
  call void @llvm.va_end.p0(ptr nonnull %7)
  %101 = call ptr @pg_malloc_extended(i64 noundef %100, i32 noundef 2) #13
  store i32 %9, ptr %8, align 4
  %.not49 = icmp eq ptr %101, null
  br i1 %.not49, label %102, label %105

102:                                              ; preds = %97
  %103 = load ptr, ptr @stderr, align 8
  %104 = call i32 @pg_vfprintf(ptr noundef %103, ptr noundef %2, ptr noundef %3) #13
  br label %117

105:                                              ; preds = %97
  %106 = call i32 @pg_vsnprintf(ptr noundef nonnull %101, i64 noundef %100, ptr noundef %2, ptr noundef %3) #13
  %107 = icmp ugt i32 %99, 1
  br i1 %107, label %108, label %114

108:                                              ; preds = %105
  %109 = getelementptr i8, ptr %101, i64 %100
  %110 = getelementptr i8, ptr %109, i64 -2
  %111 = load i8, ptr %110, align 1
  %112 = icmp eq i8 %111, 10
  br i1 %112, label %113, label %114

113:                                              ; preds = %108
  store i8 0, ptr %110, align 1
  br label %114

114:                                              ; preds = %113, %108, %105
  %115 = load ptr, ptr @stderr, align 8
  %116 = call i32 (ptr, ptr, ...) @pg_fprintf(ptr noundef %115, ptr noundef nonnull @.str.22, ptr noundef nonnull %101) #13
  call void @free(ptr noundef nonnull %101) #13
  br label %117

117:                                              ; preds = %4, %114, %102
  call void @llvm.lifetime.end.p0(i64 24, ptr nonnull %7) #13
  call void @llvm.lifetime.end.p0(i64 8, ptr nonnull %6) #13
  call void @llvm.lifetime.end.p0(i64 8, ptr nonnull %5) #13
  ret void
}